target datalayout = "e-m:e-p270:32:32-p271:32:32-p272:64:64-i64:64-i128:128-f80:128-n8:16:32:64-S128"
target triple = "x86_64-pc-linux-gnu"

%struct.__va_list_tag = type { i32, i32, ptr, ptr }

@lj_err_allmsg = hidden global ptr @.str, align 8

; Function Attrs: noinline noreturn nounwind uwtable
define hidden void @lj_err_argv(ptr noundef %0, i32 noundef %1, i32 noundef %2, ...) #6 {
  %4 = alloca ptr, align 8
  %5 = alloca i32, align 4
  %6 = alloca i32, align 4
  %7 = alloca ptr, align 8
  %8 = alloca [1 x %struct.__va_list_tag], align 16
  store ptr %0, ptr %4, align 8, !tbaa !18
  store i32 %1, ptr %5, align 4, !tbaa !4
  store i32 %2, ptr %6, align 4, !tbaa !4
  call void @llvm.lifetime.start.p0(i64 8, ptr %7) #15
  call void @llvm.lifetime.start.p0(i64 24, ptr %8) #15
  %9 = getelementptr inbounds [1 x %struct.__va_list_tag], ptr %8, i64 0, i64 0
  call void @llvm.va_start.p0(ptr %9)
  %10 = load ptr, ptr %4, align 8, !tbaa !18
  %11 = load ptr, ptr @lj_err_allmsg, align 8, !tbaa !50
  %12 = load i32, ptr %6, align 4, !tbaa !4
  %13 = sext i32 %12 to i64
  %14 = getelementptr inbounds i8, ptr %11, i64 %13
  %15 = getelementptr inbounds [1 x %struct.__va_list_tag], ptr %8, i64 0, i64 0
  %16 = call ptr @lj_strfmt_pushvf(ptr noundef %10, ptr noundef %14, ptr noundef %15)
  store ptr %16, ptr %7, align 8, !tbaa !50
  %17 = getelementptr inbounds [1 x %struct.__va_list_tag], ptr %8, i64 0, i64 0
  call void @llvm.va_end.p0(ptr %17)
  %18 = load ptr, ptr %4, align 8, !tbaa !18
  %19 = load i32, ptr %5, align 4, !tbaa !4
  %20 = load ptr, ptr %7, align 8, !tbaa !50
  call void @err_argmsg(ptr noundef %18, i32 noundef %19, ptr noundef %20) #18
  unreachable
}