; Function Attrs: noinline noreturn nounwind uwtable
define hidden void @lj_err_argv(ptr noundef %0, i32 noundef %1, i32 noundef %2, ...) local_unnamed_addr #5 {
  %4 = alloca [1 x %struct.__va_list_tag], align 16
  call void @llvm.lifetime.start.p0(i64 24, ptr nonnull %4) #15
  call void @llvm.va_start.p0(ptr nonnull %4)
  %5 = load ptr, ptr @lj_err_allmsg, align 8, !tbaa !36
  %6 = sext i32 %2 to i64
  %7 = getelementptr inbounds i8, ptr %5, i64 %6
  %8 = call ptr @lj_strfmt_pushvf(ptr noundef %0, ptr noundef %7, ptr noundef nonnull %4) #15
  call void @llvm.va_end.p0(ptr nonnull %4)
  call fastcc void @err_argmsg(ptr noundef %0, i32 noundef %1, ptr noundef %8) #19
  unreachable
}